; Function Attrs: nounwind uwtable
define range(i32 0, 2) i32 @ossl_quic_wire_decode_frame_crypto(ptr noundef captures(none) %0, i32 noundef %1, ptr noundef captures(none) %2) local_unnamed_addr #2 {
  %4 = getelementptr i8, ptr %0, i64 8
  %.val.i.i.i = load i64, ptr %4, align 8, !tbaa !52
  %5 = icmp eq i64 %.val.i.i.i, 0
  br i1 %5, label %expect_frame_header.exit.thread, label %6

6:                                                ; preds = %3
  %7 = load ptr, ptr %0, align 8, !tbaa !54
  %8 = load i8, ptr %7, align 1, !tbaa !55
  %9 = lshr i8 %8, 6
  %10 = zext nneg i8 %9 to i32
  %11 = shl nuw nsw i32 1, %10
  %12 = zext nneg i32 %11 to i64
  %13 = icmp ult i64 %.val.i.i.i, %12
  br i1 %13, label %expect_frame_header.exit.thread, label %expect_frame_header.exit

expect_frame_header.exit:                         ; preds = %6
  %14 = tail call i64 @ossl_quic_vlint_decode_unchecked(ptr noundef nonnull %7) #12
  %15 = load ptr, ptr %0, align 8, !tbaa !54
  %16 = getelementptr inbounds nuw i8, ptr %15, i64 %12
  store ptr %16, ptr %0, align 8, !tbaa !54
  %17 = load i64, ptr %4, align 8, !tbaa !52
  %18 = sub i64 %17, %12
  store i64 %18, ptr %4, align 8, !tbaa !52
  %.not2.i.not = icmp ne i64 %14, 6
  %19 = icmp eq i64 %17, %12
  %or.cond = select i1 %.not2.i.not, i1 true, i1 %19
  br i1 %or.cond, label %expect_frame_header.exit.thread, label %20

20:                                               ; preds = %expect_frame_header.exit
  %21 = load i8, ptr %16, align 1, !tbaa !55
  %22 = lshr i8 %21, 6
  %23 = zext nneg i8 %22 to i32
  %24 = shl nuw nsw i32 1, %23
  %25 = zext nneg i32 %24 to i64
  %26 = icmp ult i64 %18, %25
  br i1 %26, label %expect_frame_header.exit.thread, label %27

27:                                               ; preds = %20
  %28 = tail call i64 @ossl_quic_vlint_decode_unchecked(ptr noundef nonnull %16) #12
  store i64 %28, ptr %2, align 8, !tbaa !56
  %29 = load ptr, ptr %0, align 8, !tbaa !54
  %30 = getelementptr inbounds nuw i8, ptr %29, i64 %25
  store ptr %30, ptr %0, align 8, !tbaa !54
  %31 = load i64, ptr %4, align 8, !tbaa !52
  %32 = sub i64 %31, %25
  store i64 %32, ptr %4, align 8, !tbaa !52
  %33 = getelementptr inbounds nuw i8, ptr %2, i64 8
  %34 = icmp eq i64 %31, %25
  br i1 %34, label %expect_frame_header.exit.thread, label %35

35:                                               ; preds = %27
  %36 = load i8, ptr %30, align 1, !tbaa !55
  %37 = lshr i8 %36, 6
  %38 = zext nneg i8 %37 to i32
  %39 = shl nuw nsw i32 1, %38
  %40 = zext nneg i32 %39 to i64
  %41 = icmp ult i64 %32, %40
  br i1 %41, label %expect_frame_header.exit.thread, label %42

42:                                               ; preds = %35
  %43 = tail call i64 @ossl_quic_vlint_decode_unchecked(ptr noundef nonnull %30) #12
  store i64 %43, ptr %33, align 8, !tbaa !56
  %44 = load ptr, ptr %0, align 8, !tbaa !54
  %45 = getelementptr inbounds nuw i8, ptr %44, i64 %40
  store ptr %45, ptr %0, align 8, !tbaa !54
  %46 = load i64, ptr %4, align 8, !tbaa !52
  %47 = sub i64 %46, %40
  store i64 %47, ptr %4, align 8, !tbaa !52
  %48 = load i64, ptr %2, align 8, !tbaa !29
  %49 = add i64 %48, %43
  %50 = icmp ugt i64 %49, 4611686018427387903
  br i1 %50, label %expect_frame_header.exit.thread, label %51

51:                                               ; preds = %42
  %.not18 = icmp eq i32 %1, 0
  br i1 %.not18, label %54, label %52

52:                                               ; preds = %51
  %53 = getelementptr inbounds nuw i8, ptr %2, i64 16
  store ptr null, ptr %53, align 8, !tbaa !34
  br label %expect_frame_header.exit.thread

54:                                               ; preds = %51
  %55 = icmp ult i64 %47, %43
  br i1 %55, label %expect_frame_header.exit.thread, label %PACKET_forward.exit

PACKET_forward.exit:                              ; preds = %54
  %56 = getelementptr inbounds nuw i8, ptr %2, i64 16
  store ptr %45, ptr %56, align 8, !tbaa !34
  %57 = getelementptr inbounds nuw i8, ptr %45, i64 %43
  store ptr %57, ptr %0, align 8, !tbaa !54
  %58 = sub nuw i64 %47, %43
  store i64 %58, ptr %4, align 8, !tbaa !52
  br label %expect_frame_header.exit.thread

expect_frame_header.exit.thread:                  ; preds = %35, %27, %20, %6, %3, %52, %PACKET_forward.exit, %54, %42, %expect_frame_header.exit
  %.0 = phi i32 [ 0, %expect_frame_header.exit ], [ 0, %42 ], [ 0, %54 ], [ 1, %PACKET_forward.exit ], [ 1, %52 ], [ 0, %3 ], [ 0, %6 ], [ 0, %20 ], [ 0, %27 ], [ 0, %35 ]
  ret i32 %.0
}